target datalayout = "e-m:e-p270:32:32-p271:32:32-p272:64:64-i64:64-i128:128-f80:128-n8:16:32:64-S128"
target triple = "x86_64-pc-linux-gnu"

%struct.AVFilterContext = type { ptr, ptr, ptr, ptr, ptr, i32, ptr, ptr, i32, ptr, ptr, i32, i32, ptr, ptr, ptr, ptr, i32, ptr, i32, i32 }
%struct.LUT3DContext = type { ptr, ptr, i32, i32, %struct.rgbvec, i32, ptr, [4 x i8], i32, ptr, %struct.Lut3DPreLut, i32, i32, [4 x i8], i32, i32, i32, i32, i32, %struct.FFFrameSync }
%struct.rgbvec = type { float, float, float }
%struct.Lut3DPreLut = type { i32, [3 x float], [3 x float], [3 x float], [3 x ptr] }
%struct.FFFrameSync = type { ptr, ptr, i32, %struct.AVRational, i64, ptr, ptr, i32, i32, i8, i8, ptr, i32, i32, i32, i32 }
%struct.AVRational = type { i32, i32 }

@.str.43 = private unnamed_addr constant [34 x i8] c"Too large or invalid 3D LUT size\0A\00", align 1

; Function Attrs: nounwind uwtable
define internal i32 @allocate_3dlut(ptr noundef %0, i32 noundef %1, i32 noundef %2) #1 {
  %4 = alloca i32, align 4
  %5 = alloca ptr, align 8
  %6 = alloca i32, align 4
  %7 = alloca i32, align 4
  %8 = alloca ptr, align 8
  %9 = alloca i32, align 4
  %10 = alloca i32, align 4
  store ptr %0, ptr %5, align 8, !tbaa !4
  store i32 %1, ptr %6, align 4, !tbaa !39
  store i32 %2, ptr %7, align 4, !tbaa !39
  call void @llvm.lifetime.start.p0(i64 8, ptr %8) #16
  %11 = load ptr, ptr %5, align 8, !tbaa !4
  %12 = getelementptr inbounds nuw %struct.AVFilterContext, ptr %11, i32 0, i32 9
  %13 = load ptr, ptr %12, align 8, !tbaa !9
  store ptr %13, ptr %8, align 8, !tbaa !22
  call void @llvm.lifetime.start.p0(i64 4, ptr %9) #16
  %14 = load i32, ptr %6, align 4, !tbaa !39
  %15 = icmp slt i32 %14, 2
  br i1 %15, label %19, label %16

16:                                               ; preds = %3
  %17 = load i32, ptr %6, align 4, !tbaa !39
  %18 = icmp sgt i32 %17, 256
  br i1 %18, label %19, label %21

19:                                               ; preds = %16, %3
  %20 = load ptr, ptr %5, align 8, !tbaa !4
  call void (ptr, i32, ptr, ...) @av_log(ptr noundef %20, i32 noundef 16, ptr noundef @.str.43)
  store i32 -22, ptr %4, align 4
  store i32 1, ptr %10, align 4
  br label %103

21:                                               ; preds = %16
  %22 = load ptr, ptr %8, align 8, !tbaa !22
  %23 = getelementptr inbounds nuw %struct.LUT3DContext, ptr %22, i32 0, i32 1
  call void @av_freep(ptr noundef %23)
  %24 = load i32, ptr %6, align 4, !tbaa !39
  %25 = load i32, ptr %6, align 4, !tbaa !39
  %26 = mul nsw i32 %24, %25
  %27 = load i32, ptr %6, align 4, !tbaa !39
  %28 = mul nsw i32 %26, %27
  %29 = sext i32 %28 to i64
  %30 = call ptr @av_malloc_array(i64 noundef %29, i64 noundef 12)
  %31 = load ptr, ptr %8, align 8, !tbaa !22
  %32 = getelementptr inbounds nuw %struct.LUT3DContext, ptr %31, i32 0, i32 1
  store ptr %30, ptr %32, align 8, !tbaa !196
  %33 = load ptr, ptr %8, align 8, !tbaa !22
  %34 = getelementptr inbounds nuw %struct.LUT3DContext, ptr %33, i32 0, i32 1
  %35 = load ptr, ptr %34, align 8, !tbaa !196
  %36 = icmp ne ptr %35, null
  br i1 %36, label %38, label %37

37:                                               ; preds = %21
  store i32 -12, ptr %4, align 4
  store i32 1, ptr %10, align 4
  br label %103

38:                                               ; preds = %21
  %39 = load i32, ptr %7, align 4, !tbaa !39
  %40 = icmp ne i32 %39, 0
  br i1 %40, label %41, label %76

41:                                               ; preds = %38
  %42 = load ptr, ptr %8, align 8, !tbaa !22
  %43 = getelementptr inbounds nuw %struct.LUT3DContext, ptr %42, i32 0, i32 10
  %44 = getelementptr inbounds nuw %struct.Lut3DPreLut, ptr %43, i32 0, i32 0
  store i32 65536, ptr %44, align 8, !tbaa !242
  store i32 0, ptr %9, align 4, !tbaa !39
  br label %45

45:                                               ; preds = %72, %41
  %46 = load i32, ptr %9, align 4, !tbaa !39
  %47 = icmp slt i32 %46, 3
  br i1 %47, label %48, label %75

48:                                               ; preds = %45
  %49 = load ptr, ptr %8, align 8, !tbaa !22
  %50 = getelementptr inbounds nuw %struct.LUT3DContext, ptr %49, i32 0, i32 10
  %51 = getelementptr inbounds nuw %struct.Lut3DPreLut, ptr %50, i32 0, i32 4
  %52 = load i32, ptr %9, align 4, !tbaa !39
  %53 = sext i32 %52 to i64
  %54 = getelementptr inbounds [3 x ptr], ptr %51, i64 0, i64 %53
  call void @av_freep(ptr noundef %54)
  %55 = call ptr @av_malloc_array(i64 noundef 65536, i64 noundef 4)
  %56 = load ptr, ptr %8, align 8, !tbaa !22
  %57 = getelementptr inbounds nuw %struct.LUT3DContext, ptr %56, i32 0, i32 10
  %58 = getelementptr inbounds nuw %struct.Lut3DPreLut, ptr %57, i32 0, i32 4
  %59 = load i32, ptr %9, align 4, !tbaa !39
  %60 = sext i32 %59 to i64
  %61 = getelementptr inbounds [3 x ptr], ptr %58, i64 0, i64 %60
  store ptr %55, ptr %61, align 8, !tbaa !113
  %62 = load ptr, ptr %8, align 8, !tbaa !22
  %63 = getelementptr inbounds nuw %struct.LUT3DContext, ptr %62, i32 0, i32 10
  %64 = getelementptr inbounds nuw %struct.Lut3DPreLut, ptr %63, i32 0, i32 4
  %65 = load i32, ptr %9, align 4, !tbaa !39
  %66 = sext i32 %65 to i64
  %67 = getelementptr inbounds [3 x ptr], ptr %64, i64 0, i64 %66
  %68 = load ptr, ptr %67, align 8, !tbaa !113
  %69 = icmp ne ptr %68, null
  br i1 %69, label %71, label %70

70:                                               ; preds = %48
  store i32 -12, ptr %4, align 4
  store i32 1, ptr %10, align 4
  br label %103

71:                                               ; preds = %48
  br label %72

72:                                               ; preds = %71
  %73 = load i32, ptr %9, align 4, !tbaa !39
  %74 = add nsw i32 %73, 1
  store i32 %74, ptr %9, align 4, !tbaa !39
  br label %45, !llvm.loop !246

75:                                               ; preds = %45
  br label %94

76:                                               ; preds = %38
  %77 = load ptr, ptr %8, align 8, !tbaa !22
  %78 = getelementptr inbounds nuw %struct.LUT3DContext, ptr %77, i32 0, i32 10
  %79 = getelementptr inbounds nuw %struct.Lut3DPreLut, ptr %78, i32 0, i32 0
  store i32 0, ptr %79, align 8, !tbaa !242
  store i32 0, ptr %9, align 4, !tbaa !39
  br label %80

80:                                               ; preds = %90, %76
  %81 = load i32, ptr %9, align 4, !tbaa !39
  %82 = icmp slt i32 %81, 3
  br i1 %82, label %83, label %93

83:                                               ; preds = %80
  %84 = load ptr, ptr %8, align 8, !tbaa !22
  %85 = getelementptr inbounds nuw %struct.LUT3DContext, ptr %84, i32 0, i32 10
  %86 = getelementptr inbounds nuw %struct.Lut3DPreLut, ptr %85, i32 0, i32 4
  %87 = load i32, ptr %9, align 4, !tbaa !39
  %88 = sext i32 %87 to i64
  %89 = getelementptr inbounds [3 x ptr], ptr %86, i64 0, i64 %88
  call void @av_freep(ptr noundef %89)
  br label %90

90:                                               ; preds = %83
  %91 = load i32, ptr %9, align 4, !tbaa !39
  %92 = add nsw i32 %91, 1
  store i32 %92, ptr %9, align 4, !tbaa !39
  br label %80, !llvm.loop !247

93:                                               ; preds = %80
  br label %94

94:                                               ; preds = %93, %75
  %95 = load i32, ptr %6, align 4, !tbaa !39
  %96 = load ptr, ptr %8, align 8, !tbaa !22
  %97 = getelementptr inbounds nuw %struct.LUT3DContext, ptr %96, i32 0, i32 2
  store i32 %95, ptr %97, align 8, !tbaa !41
  %98 = load i32, ptr %6, align 4, !tbaa !39
  %99 = load i32, ptr %6, align 4, !tbaa !39
  %100 = mul nsw i32 %98, %99
  %101 = load ptr, ptr %8, align 8, !tbaa !22
  %102 = getelementptr inbounds nuw %struct.LUT3DContext, ptr %101, i32 0, i32 3
  store i32 %100, ptr %102, align 4, !tbaa !197
  store i32 0, ptr %4, align 4
  store i32 1, ptr %10, align 4
  br label %103

103:                                              ; preds = %94, %70, %37, %19
  call void @llvm.lifetime.end.p0(i64 4, ptr %9) #16
  call void @llvm.lifetime.end.p0(i64 8, ptr %8) #16
  %104 = load i32, ptr %4, align 4
  ret i32 %104
}