; Function Attrs: nounwind uwtable
define internal fastcc range(i32 -22, 1) i32 @allocate_3dlut(ptr noundef %0, i32 noundef %1, i32 noundef range(i32 0, 2) %2) unnamed_addr #1 {
  %4 = getelementptr inbounds nuw i8, ptr %0, i64 72
  %5 = load ptr, ptr %4, align 8, !tbaa !4
  %6 = add i32 %1, -257
  %or.cond = icmp ult i32 %6, -255
  br i1 %or.cond, label %7, label %8

7:                                                ; preds = %3
  tail call void (ptr, i32, ptr, ...) @av_log(ptr noundef nonnull %0, i32 noundef 16, ptr noundef nonnull @.str.43) #21
  br label %.loopexit36

8:                                                ; preds = %3
  %9 = getelementptr inbounds nuw i8, ptr %5, i64 8
  tail call void @av_freep(ptr noundef nonnull %9) #21
  %10 = mul nuw nsw i32 %1, %1
  %11 = mul nuw nsw i32 %10, %1
  %12 = zext nneg i32 %11 to i64
  %13 = tail call ptr @av_malloc_array(i64 noundef %12, i64 noundef 12) #21
  store ptr %13, ptr %9, align 8, !tbaa !34
  %.not = icmp eq ptr %13, null
  br i1 %.not, label %.loopexit36, label %14

14:                                               ; preds = %8
  %.not33 = icmp eq i32 %2, 0
  %15 = getelementptr inbounds nuw i8, ptr %5, i64 64
  %16 = getelementptr inbounds nuw i8, ptr %5, i64 104
  br i1 %.not33, label %22, label %17

17:                                               ; preds = %14
  store i32 65536, ptr %15, align 8, !tbaa !35
  br label %19

18:                                               ; preds = %19
  %indvars.iv.next = add nuw nsw i64 %indvars.iv, 1
  %exitcond.not = icmp eq i64 %indvars.iv.next, 3
  br i1 %exitcond.not, label %.loopexit, label %19, !llvm.loop !242

19:                                               ; preds = %17, %18
  %indvars.iv = phi i64 [ 0, %17 ], [ %indvars.iv.next, %18 ]
  %20 = getelementptr inbounds nuw [3 x ptr], ptr %16, i64 0, i64 %indvars.iv
  tail call void @av_freep(ptr noundef nonnull %20) #21
  %21 = tail call ptr @av_malloc_array(i64 noundef 65536, i64 noundef 4) #21
  store ptr %21, ptr %20, align 8, !tbaa !131
  %.not34 = icmp eq ptr %21, null
  br i1 %.not34, label %.loopexit36, label %18

22:                                               ; preds = %14
  store i32 0, ptr %15, align 8, !tbaa !35
  br label %23

23:                                               ; preds = %22, %23
  %indvars.iv41 = phi i64 [ 0, %22 ], [ %indvars.iv.next42, %23 ]
  %24 = getelementptr inbounds nuw [3 x ptr], ptr %16, i64 0, i64 %indvars.iv41
  tail call void @av_freep(ptr noundef nonnull %24) #21
  %indvars.iv.next42 = add nuw nsw i64 %indvars.iv41, 1
  %exitcond44.not = icmp eq i64 %indvars.iv.next42, 3
  br i1 %exitcond44.not, label %.loopexit, label %23, !llvm.loop !36

.loopexit:                                        ; preds = %18, %23
  %25 = getelementptr inbounds nuw i8, ptr %5, i64 16
  store i32 %1, ptr %25, align 8, !tbaa !38
  %26 = getelementptr inbounds nuw i8, ptr %5, i64 20
  store i32 %10, ptr %26, align 4, !tbaa !39
  br label %.loopexit36

.loopexit36:                                      ; preds = %19, %8, %.loopexit, %7
  %.031 = phi i32 [ -22, %7 ], [ 0, %.loopexit ], [ -12, %8 ], [ -12, %19 ]
  ret i32 %.031
}